target datalayout = "e-m:e-p270:32:32-p271:32:32-p272:64:64-i64:64-i128:128-f80:128-n8:16:32:64-S128"
target triple = "x86_64-unknown-linux-gnu"

%"class.Imath_3_2::Vec3" = type { float, float, float }
%"class.Imf_3_2::RgbaOutputFile::ToYca" = type { %"class.std::mutex", ptr, i8, i8, i8, i32, i32, i32, i32, i32, i32, %"class.Imath_3_2::Vec3", ptr, [27 x ptr], ptr, ptr, i64, i64, i32, i32 }
%"class.std::mutex" = type { %"class.std::__mutex_base" }
%"class.std::__mutex_base" = type { %union.pthread_mutex_t }
%union.pthread_mutex_t = type { %struct.__pthread_mutex_s }
%struct.__pthread_mutex_s = type { i32, i32, i32, i32, i32, i16, i16, %struct.__pthread_internal_list }
%struct.__pthread_internal_list = type { ptr, ptr }

; Function Attrs: mustprogress uwtable
define hidden void @_ZN7Imf_3_214RgbaOutputFile5ToYca34decimateChromaVertAndWriteScanLineEv(ptr noundef nonnull align 8 dereferenceable(352) %this) #4 align 2 {
entry:
  %this.addr = alloca ptr, align 8
  store ptr %this, ptr %this.addr, align 8
  %this1 = load ptr, ptr %this.addr, align 8
  %_linesConverted = getelementptr inbounds %"class.Imf_3_2::RgbaOutputFile::ToYca", ptr %this1, i32 0, i32 8
  %0 = load i32, ptr %_linesConverted, align 8
  %and = and i32 %0, 1
  %tobool = icmp ne i32 %and, 0
  br i1 %tobool, label %if.then, label %if.else

if.then:                                          ; preds = %entry
  %_tmpBuf = getelementptr inbounds %"class.Imf_3_2::RgbaOutputFile::ToYca", ptr %this1, i32 0, i32 14
  %1 = load ptr, ptr %_tmpBuf, align 8
  %_buf = getelementptr inbounds %"class.Imf_3_2::RgbaOutputFile::ToYca", ptr %this1, i32 0, i32 13
  %arrayidx = getelementptr inbounds [27 x ptr], ptr %_buf, i64 0, i64 13
  %2 = load ptr, ptr %arrayidx, align 8
  %_width = getelementptr inbounds %"class.Imf_3_2::RgbaOutputFile::ToYca", ptr %this1, i32 0, i32 6
  %3 = load i32, ptr %_width, align 8
  %conv = sext i32 %3 to i64
  %mul = mul i64 %conv, 8
  call void @llvm.memcpy.p0.p0.i64(ptr align 2 %1, ptr align 2 %2, i64 %mul, i1 false)
  br label %if.end

if.else:                                          ; preds = %entry
  %_width2 = getelementptr inbounds %"class.Imf_3_2::RgbaOutputFile::ToYca", ptr %this1, i32 0, i32 6
  %4 = load i32, ptr %_width2, align 8
  %_buf3 = getelementptr inbounds %"class.Imf_3_2::RgbaOutputFile::ToYca", ptr %this1, i32 0, i32 13
  %arraydecay = getelementptr inbounds [27 x ptr], ptr %_buf3, i64 0, i64 0
  %_tmpBuf4 = getelementptr inbounds %"class.Imf_3_2::RgbaOutputFile::ToYca", ptr %this1, i32 0, i32 14
  %5 = load ptr, ptr %_tmpBuf4, align 8
  call void @_ZN7Imf_3_27RgbaYca18decimateChromaVertEiPKPKNS_4RgbaEPS1_(i32 noundef %4, ptr noundef %arraydecay, ptr noundef %5)
  br label %if.end

if.end:                                           ; preds = %if.else, %if.then
  %_writeY = getelementptr inbounds %"class.Imf_3_2::RgbaOutputFile::ToYca", ptr %this1, i32 0, i32 2
  %6 = load i8, ptr %_writeY, align 8
  %tobool5 = trunc i8 %6 to i1
  br i1 %tobool5, label %land.lhs.true, label %if.end11

land.lhs.true:                                    ; preds = %if.end
  %_writeC = getelementptr inbounds %"class.Imf_3_2::RgbaOutputFile::ToYca", ptr %this1, i32 0, i32 3
  %7 = load i8, ptr %_writeC, align 1
  %tobool6 = trunc i8 %7 to i1
  br i1 %tobool6, label %if.then7, label %if.end11

if.then7:                                         ; preds = %land.lhs.true
  %_width8 = getelementptr inbounds %"class.Imf_3_2::RgbaOutputFile::ToYca", ptr %this1, i32 0, i32 6
  %8 = load i32, ptr %_width8, align 8
  %_roundY = getelementptr inbounds %"class.Imf_3_2::RgbaOutputFile::ToYca", ptr %this1, i32 0, i32 18
  %9 = load i32, ptr %_roundY, align 8
  %_roundC = getelementptr inbounds %"class.Imf_3_2::RgbaOutputFile::ToYca", ptr %this1, i32 0, i32 19
  %10 = load i32, ptr %_roundC, align 4
  %_tmpBuf9 = getelementptr inbounds %"class.Imf_3_2::RgbaOutputFile::ToYca", ptr %this1, i32 0, i32 14
  %11 = load ptr, ptr %_tmpBuf9, align 8
  %_tmpBuf10 = getelementptr inbounds %"class.Imf_3_2::RgbaOutputFile::ToYca", ptr %this1, i32 0, i32 14
  %12 = load ptr, ptr %_tmpBuf10, align 8
  call void @_ZN7Imf_3_27RgbaYca8roundYCAEijjPKNS_4RgbaEPS1_(i32 noundef %8, i32 noundef %9, i32 noundef %10, ptr noundef %11, ptr noundef %12)
  br label %if.end11

if.end11:                                         ; preds = %if.then7, %land.lhs.true, %if.end
  %_outputFile = getelementptr inbounds %"class.Imf_3_2::RgbaOutputFile::ToYca", ptr %this1, i32 0, i32 1
  %13 = load ptr, ptr %_outputFile, align 8
  call void @_ZN7Imf_3_210OutputFile11writePixelsEi(ptr noundef nonnull align 8 dereferenceable(16) %13, i32 noundef 1)
  ret void
}