; Function Attrs: mustprogress uwtable
define hidden void @_ZN7Imf_3_214RgbaOutputFile5ToYca34decimateChromaVertAndWriteScanLineEv(ptr noundef nonnull align 8 dereferenceable(352) %this) local_unnamed_addr #3 align 2 {
entry:
  %_linesConverted = getelementptr inbounds i8, ptr %this, i64 64
  %0 = load i32, ptr %_linesConverted, align 8
  %and = and i32 %0, 1
  %tobool.not = icmp eq i32 %and, 0
  br i1 %tobool.not, label %if.else, label %if.then

if.then:                                          ; preds = %entry
  %_tmpBuf = getelementptr inbounds i8, ptr %this, i64 312
  %1 = load ptr, ptr %_tmpBuf, align 8
  %arrayidx = getelementptr inbounds i8, ptr %this, i64 200
  %2 = load ptr, ptr %arrayidx, align 8
  %_width = getelementptr inbounds i8, ptr %this, i64 56
  %3 = load i32, ptr %_width, align 8
  %conv = sext i32 %3 to i64
  %mul = shl nsw i64 %conv, 3
  tail call void @llvm.memcpy.p0.p0.i64(ptr align 2 %1, ptr align 2 %2, i64 %mul, i1 false)
  br label %if.end

if.else:                                          ; preds = %entry
  %_width2 = getelementptr inbounds i8, ptr %this, i64 56
  %4 = load i32, ptr %_width2, align 8
  %_buf3 = getelementptr inbounds i8, ptr %this, i64 96
  %_tmpBuf4 = getelementptr inbounds i8, ptr %this, i64 312
  %5 = load ptr, ptr %_tmpBuf4, align 8
  tail call void @_ZN7Imf_3_27RgbaYca18decimateChromaVertEiPKPKNS_4RgbaEPS1_(i32 noundef %4, ptr noundef nonnull %_buf3, ptr noundef %5)
  br label %if.end

if.end:                                           ; preds = %if.else, %if.then
  %_writeY = getelementptr inbounds i8, ptr %this, i64 48
  %6 = load i8, ptr %_writeY, align 8
  %7 = and i8 %6, 1
  %tobool5.not = icmp eq i8 %7, 0
  br i1 %tobool5.not, label %if.end11, label %land.lhs.true

land.lhs.true:                                    ; preds = %if.end
  %_writeC = getelementptr inbounds i8, ptr %this, i64 49
  %8 = load i8, ptr %_writeC, align 1
  %9 = and i8 %8, 1
  %tobool6.not = icmp eq i8 %9, 0
  br i1 %tobool6.not, label %if.end11, label %if.then7

if.then7:                                         ; preds = %land.lhs.true
  %_width8 = getelementptr inbounds i8, ptr %this, i64 56
  %10 = load i32, ptr %_width8, align 8
  %_roundY = getelementptr inbounds i8, ptr %this, i64 344
  %11 = load i32, ptr %_roundY, align 8
  %_roundC = getelementptr inbounds i8, ptr %this, i64 348
  %12 = load i32, ptr %_roundC, align 4
  %_tmpBuf9 = getelementptr inbounds i8, ptr %this, i64 312
  %13 = load ptr, ptr %_tmpBuf9, align 8
  tail call void @_ZN7Imf_3_27RgbaYca8roundYCAEijjPKNS_4RgbaEPS1_(i32 noundef %10, i32 noundef %11, i32 noundef %12, ptr noundef %13, ptr noundef %13)
  br label %if.end11

if.end11:                                         ; preds = %if.then7, %land.lhs.true, %if.end
  %_outputFile = getelementptr inbounds i8, ptr %this, i64 40
  %14 = load ptr, ptr %_outputFile, align 8
  tail call void @_ZN7Imf_3_210OutputFile11writePixelsEi(ptr noundef nonnull align 8 dereferenceable(16) %14, i32 noundef 1)
  ret void
}